target datalayout = "e-m:e-p270:32:32-p271:32:32-p272:64:64-i64:64-i128:128-f80:128-n8:16:32:64-S128"
target triple = "x86_64-pc-linux-gnu"

@.str = private unnamed_addr constant [34 x i8] c"../openssl/test/fake_cipherprov.c\00", align 1
@.str.9 = private unnamed_addr constant [7 x i8] c"keylen\00", align 1
@.str.11 = private unnamed_addr constant [6 x i8] c"ivlen\00", align 1
@__func__.fake_get_ctx_params = private unnamed_addr constant [20 x i8] c"fake_get_ctx_params\00", align 1

; Function Attrs: nounwind uwtable
define internal i32 @fake_get_ctx_params(ptr noundef %0, ptr noundef %1) #0 {
  %3 = alloca i32, align 4
  %4 = alloca ptr, align 8
  %5 = alloca ptr, align 8
  %6 = alloca ptr, align 8
  %7 = alloca i32, align 4
  store ptr %0, ptr %4, align 8, !tbaa !17
  store ptr %1, ptr %5, align 8, !tbaa !33
  call void @llvm.lifetime.start.p0(i64 8, ptr %6) #6
  %8 = load ptr, ptr %5, align 8, !tbaa !33
  %9 = call ptr @OSSL_PARAM_locate(ptr noundef %8, ptr noundef @.str.11)
  store ptr %9, ptr %6, align 8, !tbaa !33
  %10 = load ptr, ptr %6, align 8, !tbaa !33
  %11 = icmp ne ptr %10, null
  br i1 %11, label %12, label %17

12:                                               ; preds = %2
  %13 = load ptr, ptr %6, align 8, !tbaa !33
  %14 = call i32 @OSSL_PARAM_set_size_t(ptr noundef %13, i64 noundef 0)
  %15 = icmp ne i32 %14, 0
  br i1 %15, label %17, label %16

16:                                               ; preds = %12
  call void @ERR_new()
  call void @ERR_set_debug(ptr noundef @.str, i32 noundef 228, ptr noundef @__func__.fake_get_ctx_params)
  call void (i32, i32, ptr, ...) @ERR_set_error(i32 noundef 57, i32 noundef 104, ptr noundef null)
  store i32 0, ptr %3, align 4
  store i32 1, ptr %7, align 4
  br label %28

17:                                               ; preds = %12, %2
  %18 = load ptr, ptr %5, align 8, !tbaa !33
  %19 = call ptr @OSSL_PARAM_locate(ptr noundef %18, ptr noundef @.str.9)
  store ptr %19, ptr %6, align 8, !tbaa !33
  %20 = load ptr, ptr %6, align 8, !tbaa !33
  %21 = icmp ne ptr %20, null
  br i1 %21, label %22, label %27

22:                                               ; preds = %17
  %23 = load ptr, ptr %6, align 8, !tbaa !33
  %24 = call i32 @OSSL_PARAM_set_size_t(ptr noundef %23, i64 noundef 16)
  %25 = icmp ne i32 %24, 0
  br i1 %25, label %27, label %26

26:                                               ; preds = %22
  call void @ERR_new()
  call void @ERR_set_debug(ptr noundef @.str, i32 noundef 233, ptr noundef @__func__.fake_get_ctx_params)
  call void (i32, i32, ptr, ...) @ERR_set_error(i32 noundef 57, i32 noundef 104, ptr noundef null)
  store i32 0, ptr %3, align 4
  store i32 1, ptr %7, align 4
  br label %28

27:                                               ; preds = %22, %17
  store i32 1, ptr %3, align 4
  store i32 1, ptr %7, align 4
  br label %28

28:                                               ; preds = %27, %26, %16
  call void @llvm.lifetime.end.p0(i64 8, ptr %6) #6
  %29 = load i32, ptr %3, align 4
  ret i32 %29
}