; Function Attrs: nounwind uwtable
define internal range(i32 0, 2) i32 @fake_get_ctx_params(ptr readnone captures(none) %0, ptr noundef %1) #0 {
  %3 = tail call ptr @OSSL_PARAM_locate(ptr noundef %1, ptr noundef nonnull @.str.11) #11
  %.not = icmp eq ptr %3, null
  br i1 %.not, label %6, label %4

4:                                                ; preds = %2
  %5 = tail call i32 @OSSL_PARAM_set_size_t(ptr noundef nonnull %3, i64 noundef 0) #11
  %.not8 = icmp eq i32 %5, 0
  br i1 %.not8, label %.sink.split, label %6

6:                                                ; preds = %4, %2
  %7 = tail call ptr @OSSL_PARAM_locate(ptr noundef %1, ptr noundef nonnull @.str.9) #11
  %.not9 = icmp eq ptr %7, null
  br i1 %.not9, label %10, label %8

8:                                                ; preds = %6
  %9 = tail call i32 @OSSL_PARAM_set_size_t(ptr noundef nonnull %7, i64 noundef 16) #11
  %.not10 = icmp eq i32 %9, 0
  br i1 %.not10, label %.sink.split, label %10

.sink.split:                                      ; preds = %8, %4
  %.sink = phi i32 [ 228, %4 ], [ 233, %8 ]
  tail call void @ERR_new() #11
  tail call void @ERR_set_debug(ptr noundef nonnull @.str, i32 noundef %.sink, ptr noundef nonnull @__func__.fake_get_ctx_params) #11
  tail call void (i32, i32, ptr, ...) @ERR_set_error(i32 noundef 57, i32 noundef 104, ptr noundef null) #11
  br label %10

10:                                               ; preds = %.sink.split, %6, %8
  %.0 = phi i32 [ 1, %8 ], [ 1, %6 ], [ 0, %.sink.split ]
  ret i32 %.0
}